target datalayout = "e-m:e-p270:32:32-p271:32:32-p272:64:64-i64:64-i128:128-f80:128-n8:16:32:64-S128"
target triple = "x86_64-pc-linux-gnu"

%struct.H5F_t = type { ptr, ptr, ptr, ptr, i32, ptr, i8, i8, ptr, i32 }
%struct.H5F_shared_t = type { ptr, ptr, ptr, i8, i32, i32, %struct.H5F_mtab_t, ptr, i8, i8, i64, i32, i32, i64, i64, ptr, ptr, %struct.H5AC_cache_config_t, %struct.H5AC_cache_image_config_t, i8, i8, ptr, i64, i32, i8, i64, i64, double, i64, i64, i64, i32, i32, i32, i8, i32, ptr, ptr, ptr, ptr, i8, i8, i8, i64, i64, ptr, ptr, i32, i64, i8, i32, i8, i64, i8, [13 x i32], [13 x i64], [13 x ptr], i8, i64, i64, [7 x i32], [7 x i32], %struct.H5F_blk_aggr_t, %struct.H5F_blk_aggr_t, i64, i64, %struct.H5F_meta_accum_t, i32, i32, [30 x ptr], %struct.H5F_object_flush_t, i8, ptr }
%struct.H5F_mtab_t = type { i32, i32, ptr }
%struct.H5AC_cache_config_t = type { i32, i8, i8, i8, [1025 x i8], i8, i8, i64, double, i64, i64, i64, i32, double, double, i8, i64, i32, double, double, i32, double, double, i8, i64, i32, i8, double, i64, i32 }
%struct.H5AC_cache_image_config_t = type { i32, i8, i8, i32 }
%struct.H5F_blk_aggr_t = type { i64, i64, i64, i64, i64 }
%struct.H5F_meta_accum_t = type { ptr, i64, i64, i64, i64, i64, i8 }
%struct.H5F_object_flush_t = type { ptr, ptr }
%struct.H5G_t = type { ptr, %struct.H5O_loc_t, %struct.H5G_name_t }
%struct.H5O_loc_t = type { ptr, i64, i8 }
%struct.H5G_name_t = type { ptr, ptr, i32 }

; Function Attrs: nounwind uwtable
define ptr @H5G_rootof(ptr noundef %0) #0 {
  %2 = alloca ptr, align 8
  store ptr %0, ptr %2, align 8
  br label %3

3:                                                ; preds = %8, %1
  %4 = load ptr, ptr %2, align 8
  %5 = getelementptr inbounds %struct.H5F_t, ptr %4, i32 0, i32 8
  %6 = load ptr, ptr %5, align 8
  %7 = icmp ne ptr %6, null
  br i1 %7, label %8, label %12

8:                                                ; preds = %3
  %9 = load ptr, ptr %2, align 8
  %10 = getelementptr inbounds %struct.H5F_t, ptr %9, i32 0, i32 8
  %11 = load ptr, ptr %10, align 8
  store ptr %11, ptr %2, align 8
  br label %3

12:                                               ; preds = %3
  %13 = load ptr, ptr %2, align 8
  %14 = getelementptr inbounds %struct.H5F_t, ptr %13, i32 0, i32 2
  %15 = load ptr, ptr %14, align 8
  %16 = getelementptr inbounds %struct.H5F_shared_t, ptr %15, i32 0, i32 37
  %17 = load ptr, ptr %16, align 8
  %18 = getelementptr inbounds %struct.H5G_t, ptr %17, i32 0, i32 1
  %19 = getelementptr inbounds %struct.H5O_loc_t, ptr %18, i32 0, i32 0
  %20 = load ptr, ptr %19, align 8
  %21 = load ptr, ptr %2, align 8
  %22 = icmp ne ptr %20, %21
  br i1 %22, label %23, label %32

23:                                               ; preds = %12
  %24 = load ptr, ptr %2, align 8
  %25 = load ptr, ptr %2, align 8
  %26 = getelementptr inbounds %struct.H5F_t, ptr %25, i32 0, i32 2
  %27 = load ptr, ptr %26, align 8
  %28 = getelementptr inbounds %struct.H5F_shared_t, ptr %27, i32 0, i32 37
  %29 = load ptr, ptr %28, align 8
  %30 = getelementptr inbounds %struct.H5G_t, ptr %29, i32 0, i32 1
  %31 = getelementptr inbounds %struct.H5O_loc_t, ptr %30, i32 0, i32 0
  store ptr %24, ptr %31, align 8
  br label %32

32:                                               ; preds = %23, %12
  %33 = load ptr, ptr %2, align 8
  %34 = getelementptr inbounds %struct.H5F_t, ptr %33, i32 0, i32 2
  %35 = load ptr, ptr %34, align 8
  %36 = getelementptr inbounds %struct.H5F_shared_t, ptr %35, i32 0, i32 37
  %37 = load ptr, ptr %36, align 8
  ret ptr %37
}