; Function Attrs: nofree norecurse nosync nounwind memory(readwrite, inaccessiblemem: none) uwtable
define ptr @H5G_rootof(ptr noundef %0) local_unnamed_addr #0 {
  br label %2

2:                                                ; preds = %2, %1
  %.0 = phi ptr [ %0, %1 ], [ %4, %2 ]
  %3 = getelementptr inbounds i8, ptr %.0, i64 56
  %4 = load ptr, ptr %3, align 8
  %.not = icmp eq ptr %4, null
  br i1 %.not, label %5, label %2

5:                                                ; preds = %2
  %6 = getelementptr inbounds i8, ptr %.0, i64 16
  %7 = load ptr, ptr %6, align 8
  %8 = getelementptr inbounds i8, ptr %7, i64 1456
  %9 = load ptr, ptr %8, align 8
  %10 = getelementptr inbounds i8, ptr %9, i64 8
  %11 = load ptr, ptr %10, align 8
  %.not8 = icmp eq ptr %11, %.0
  br i1 %.not8, label %13, label %12

12:                                               ; preds = %5
  store ptr %.0, ptr %10, align 8
  %.pre = load ptr, ptr %6, align 8
  %.phi.trans.insert = getelementptr inbounds i8, ptr %.pre, i64 1456
  %.pre9 = load ptr, ptr %.phi.trans.insert, align 8
  br label %13

13:                                               ; preds = %12, %5
  %14 = phi ptr [ %.pre9, %12 ], [ %9, %5 ]
  ret ptr %14
}